; Function Attrs: nounwind uwtable
define dso_local void @fflush_or_die(ptr noundef captures(none) %0) local_unnamed_addr #0 {
  %2 = tail call i32 @fflush(ptr noundef %0)
  %.not = icmp eq i32 %2, 0
  br i1 %.not, label %4, label %3

3:                                                ; preds = %1
  tail call void (ptr, ...) @die_errno(ptr noundef nonnull @.str.5) #10
  unreachable

4:                                                ; preds = %1
  ret void
}